; Function Attrs: nounwind uwtable
define internal void @bayer_gbrg8_to_yv12_copy(ptr noundef readonly captures(none) %0, i32 noundef %1, ptr noundef %2, ptr noundef %3, ptr noundef %4, i32 noundef %5, i32 noundef %6, ptr noundef %7) unnamed_addr #3 {
  %9 = alloca [12 x i8], align 1
  call void @llvm.lifetime.start.p0(i64 12, ptr nonnull %9) #13
  %10 = icmp sgt i32 %6, 0
  br i1 %10, label %.lr.ph, label %._crit_edge

.lr.ph:                                           ; preds = %8
  %11 = sext i32 %1 to i64
  %12 = getelementptr inbounds nuw i8, ptr %9, i64 6
  %13 = getelementptr inbounds nuw i8, ptr %9, i64 9
  %14 = getelementptr inbounds nuw i8, ptr %9, i64 3
  %15 = getelementptr inbounds nuw i8, ptr %9, i64 1
  %16 = getelementptr inbounds nuw i8, ptr %9, i64 10
  %17 = getelementptr inbounds nuw i8, ptr %9, i64 7
  %18 = getelementptr inbounds nuw i8, ptr %9, i64 4
  %19 = getelementptr inbounds nuw i8, ptr %9, i64 8
  %20 = getelementptr inbounds nuw i8, ptr %9, i64 5
  %21 = getelementptr inbounds nuw i8, ptr %9, i64 2
  %22 = getelementptr inbounds nuw i8, ptr %9, i64 11
  br label %23

23:                                               ; preds = %.lr.ph, %23
  %.031 = phi i32 [ 0, %.lr.ph ], [ %41, %23 ]
  %.02330 = phi ptr [ %0, %.lr.ph ], [ %37, %23 ]
  %.02429 = phi ptr [ %2, %.lr.ph ], [ %38, %23 ]
  %.02528 = phi ptr [ %3, %.lr.ph ], [ %39, %23 ]
  %.02627 = phi ptr [ %4, %.lr.ph ], [ %40, %23 ]
  %24 = getelementptr inbounds i8, ptr %.02330, i64 %11
  %25 = load i8, ptr %24, align 1, !tbaa !61
  store i8 %25, ptr %12, align 1, !tbaa !61
  store i8 %25, ptr %13, align 1, !tbaa !61
  store i8 %25, ptr %14, align 1, !tbaa !61
  store i8 %25, ptr %9, align 1, !tbaa !61
  %26 = load i8, ptr %.02330, align 1, !tbaa !61
  store i8 %26, ptr %15, align 1, !tbaa !61
  %27 = getelementptr i8, ptr %24, i64 1
  %28 = load i8, ptr %27, align 1, !tbaa !61
  store i8 %28, ptr %16, align 1, !tbaa !61
  %29 = zext i8 %26 to i16
  %30 = zext i8 %28 to i16
  %31 = add nuw nsw i16 %30, %29
  %32 = lshr i16 %31, 1
  %33 = trunc nuw i16 %32 to i8
  store i8 %33, ptr %17, align 1, !tbaa !61
  store i8 %33, ptr %18, align 1, !tbaa !61
  %34 = getelementptr inbounds nuw i8, ptr %.02330, i64 1
  %35 = load i8, ptr %34, align 1, !tbaa !61
  store i8 %35, ptr %19, align 1, !tbaa !61
  store i8 %35, ptr %20, align 1, !tbaa !61
  store i8 %35, ptr %21, align 1, !tbaa !61
  store i8 %35, ptr %22, align 1, !tbaa !61
  %36 = load ptr, ptr @ff_rgb24toyv12, align 8, !tbaa !51
  call void %36(ptr noundef nonnull %9, ptr noundef %.02429, ptr noundef %.02627, ptr noundef %.02528, i32 noundef 2, i32 noundef 2, i32 noundef %5, i32 noundef 0, i32 noundef 6, ptr noundef %7) #13
  %37 = getelementptr inbounds nuw i8, ptr %.02330, i64 2
  %38 = getelementptr inbounds nuw i8, ptr %.02429, i64 2
  %39 = getelementptr inbounds nuw i8, ptr %.02528, i64 1
  %40 = getelementptr inbounds nuw i8, ptr %.02627, i64 1
  %41 = add nuw nsw i32 %.031, 2
  %42 = icmp slt i32 %41, %6
  br i1 %42, label %23, label %._crit_edge, !llvm.loop !296

._crit_edge:                                      ; preds = %23, %8
  call void @llvm.lifetime.end.p0(i64 12, ptr nonnull %9) #13
  ret void
}